; Function Attrs: mustprogress uwtable
define hidden void @_ZN3seq6skolem2mkERK6symbolP4exprS5_S5_S5_P4sortb(ptr dead_on_unwind noalias writable sret(%class.obj_ref) align 8 initializes((0, 16)) %0, ptr noundef nonnull align 8 dereferenceable(336) %1, ptr noundef nonnull align 8 dereferenceable(8) %2, ptr noundef %3, ptr noundef %4, ptr noundef %5, ptr noundef %6, ptr noundef %7, i1 noundef zeroext %8) local_unnamed_addr #3 align 2 personality ptr @__gxx_personality_v0 {
  %10 = alloca [4 x ptr], align 16
  call void @llvm.lifetime.start.p0(i64 32, ptr nonnull %10) #20
  store ptr %3, ptr %10, align 16, !tbaa !56
  %11 = getelementptr inbounds nuw i8, ptr %10, i64 8
  store ptr %4, ptr %11, align 8, !tbaa !56
  %12 = getelementptr inbounds nuw i8, ptr %10, i64 16
  store ptr %5, ptr %12, align 16, !tbaa !56
  %13 = getelementptr inbounds nuw i8, ptr %10, i64 24
  store ptr %6, ptr %13, align 8, !tbaa !56
  %.not = icmp eq ptr %6, null
  br i1 %.not, label %14, label %18

14:                                               ; preds = %9
  %.not18 = icmp eq ptr %5, null
  br i1 %.not18, label %15, label %18

15:                                               ; preds = %14
  %.not19 = icmp eq ptr %4, null
  %.not20 = icmp ne ptr %3, null
  %16 = zext i1 %.not20 to i32
  %17 = select i1 %.not19, i32 %16, i32 2
  br label %18

18:                                               ; preds = %15, %14, %9
  %19 = phi i32 [ 4, %9 ], [ %17, %15 ], [ 3, %14 ]
  %.not21 = icmp eq ptr %7, null
  br i1 %.not21, label %20, label %22

20:                                               ; preds = %18
  %21 = tail call noundef ptr @_ZNK4expr8get_sortEv(ptr noundef nonnull align 4 dereferenceable(16) %3)
  br label %22

22:                                               ; preds = %20, %18
  %.0 = phi ptr [ %7, %18 ], [ %21, %20 ]
  %23 = getelementptr inbounds nuw i8, ptr %1, i64 16
  %24 = call noundef ptr @_ZN8seq_util9mk_skolemERK6symboljPKP4exprP4sort(ptr noundef nonnull align 8 dereferenceable(136) %23, ptr noundef nonnull align 8 dereferenceable(8) %2, i32 noundef %19, ptr noundef nonnull %10, ptr noundef %.0)
  %25 = load ptr, ptr %1, align 8, !tbaa !63
  store ptr %24, ptr %0, align 8, !tbaa !67
  %26 = getelementptr inbounds nuw i8, ptr %0, i64 8
  store ptr %25, ptr %26, align 8, !tbaa !3
  %.not.i.i = icmp eq ptr %24, null
  br i1 %.not.i.i, label %_ZN7obj_refI4expr11ast_managerEC2EPS0_RS1_.exit, label %_ZN11ast_manager7inc_refEP3ast.exit.i.i

_ZN11ast_manager7inc_refEP3ast.exit.i.i:          ; preds = %22
  %27 = getelementptr inbounds nuw i8, ptr %24, i64 8
  %28 = load i32, ptr %27, align 4, !tbaa !59
  %29 = add i32 %28, 1
  store i32 %29, ptr %27, align 4, !tbaa !59
  br label %_ZN7obj_refI4expr11ast_managerEC2EPS0_RS1_.exit

_ZN7obj_refI4expr11ast_managerEC2EPS0_RS1_.exit:  ; preds = %22, %_ZN11ast_manager7inc_refEP3ast.exit.i.i
  br i1 %8, label %30, label %35

30:                                               ; preds = %_ZN7obj_refI4expr11ast_managerEC2EPS0_RS1_.exit
  %31 = getelementptr inbounds nuw i8, ptr %1, i64 8
  %32 = load ptr, ptr %31, align 8, !tbaa !69
  invoke void @_ZN11th_rewriterclER7obj_refI4expr11ast_managerE(ptr noundef nonnull align 8 dereferenceable(16) %32, ptr noundef nonnull align 8 dereferenceable(16) %0)
          to label %35 unwind label %33

33:                                               ; preds = %30
  %34 = landingpad { ptr, i32 }
          cleanup
  call void @_ZN7obj_refI4expr11ast_managerED2Ev(ptr noundef nonnull align 8 dereferenceable(16) %0) #20
  call void @llvm.lifetime.end.p0(i64 32, ptr nonnull %10) #20
  resume { ptr, i32 } %34

35:                                               ; preds = %_ZN7obj_refI4expr11ast_managerEC2EPS0_RS1_.exit, %30
  call void @llvm.lifetime.end.p0(i64 32, ptr nonnull %10) #20
  ret void
}